; Function Attrs: nounwind uwtable
define void @Abc_NtkPrintFactor(ptr noundef captures(none) %0, ptr noundef readonly captures(none) %1, i32 noundef %2) local_unnamed_addr #0 {
  %4 = getelementptr inbounds nuw i8, ptr %1, i64 32
  %5 = load ptr, ptr %4, align 8
  %6 = getelementptr i8, ptr %5, i64 4
  %.val12 = load i32, ptr %6, align 4
  %7 = icmp sgt i32 %.val12, 0
  br i1 %7, label %.lr.ph, label %.critedge

.lr.ph:                                           ; preds = %3, %17
  %8 = phi ptr [ %18, %17 ], [ %5, %3 ]
  %indvars.iv = phi i64 [ %indvars.iv.next, %17 ], [ 0, %3 ]
  %9 = getelementptr i8, ptr %8, i64 8
  %.val10.val = load ptr, ptr %9, align 8
  %10 = getelementptr inbounds nuw ptr, ptr %.val10.val, i64 %indvars.iv
  %11 = load ptr, ptr %10, align 8
  %12 = icmp eq ptr %11, null
  br i1 %12, label %17, label %13

13:                                               ; preds = %.lr.ph
  %14 = getelementptr i8, ptr %11, i64 20
  %.val11 = load i32, ptr %14, align 4
  %15 = and i32 %.val11, 15
  %.not = icmp eq i32 %15, 7
  br i1 %.not, label %16, label %17

16:                                               ; preds = %13
  tail call void @Abc_NodePrintFactor(ptr noundef %0, ptr noundef nonnull %11, i32 noundef %2)
  %.pre = load ptr, ptr %4, align 8
  br label %17

17:                                               ; preds = %16, %13, %.lr.ph
  %18 = phi ptr [ %.pre, %16 ], [ %8, %13 ], [ %8, %.lr.ph ]
  %indvars.iv.next = add nuw nsw i64 %indvars.iv, 1
  %19 = getelementptr i8, ptr %18, i64 4
  %.val = load i32, ptr %19, align 4
  %20 = sext i32 %.val to i64
  %21 = icmp slt i64 %indvars.iv.next, %20
  br i1 %21, label %.lr.ph, label %.critedge, !llvm.loop !59

.critedge:                                        ; preds = %17, %3
  ret void
}